; Function Attrs: mustprogress uwtable
define noundef nonnull align 8 dereferenceable(32) ptr @_ZN2mu14ParserCallbackaSERKS0_(ptr noundef nonnull returned align 8 dereferenceable(32) %0, ptr noundef nonnull readonly align 8 dereferenceable(32) %1) local_unnamed_addr #7 align 2 {
  %3 = icmp eq ptr %0, %1
  br i1 %3, label %_ZN2mu14ParserCallback6AssignERKS0_.exit, label %4

4:                                                ; preds = %2
  %5 = getelementptr inbounds nuw i8, ptr %0, i64 8
  %6 = load i32, ptr %5, align 8, !tbaa !14
  %7 = and i32 %6, 8192
  %.not.i = icmp eq i32 %7, 0
  br i1 %.not.i, label %13, label %8

8:                                                ; preds = %4
  %9 = load ptr, ptr %0, align 8, !tbaa !4
  %10 = icmp eq ptr %9, null
  br i1 %10, label %12, label %11

11:                                               ; preds = %8
  tail call void @_ZdlPv(ptr noundef nonnull %9) #13
  br label %12

12:                                               ; preds = %11, %8
  store ptr null, ptr %0, align 8, !tbaa !4
  br label %13

13:                                               ; preds = %12, %4
  %14 = getelementptr inbounds nuw i8, ptr %1, i64 8
  %15 = load i32, ptr %14, align 8, !tbaa !14
  %16 = and i32 %15, 8192
  %.not13.i = icmp eq i32 %16, 0
  br i1 %.not13.i, label %20, label %17

17:                                               ; preds = %13
  %18 = tail call noalias noundef nonnull dereferenceable(16) ptr @_Znwm(i64 noundef 16) #12
  %19 = load ptr, ptr %1, align 8, !tbaa !4
  tail call void @llvm.memcpy.p0.p0.i64(ptr noundef nonnull align 16 dereferenceable(16) %18, ptr noundef nonnull align 8 dereferenceable(16) %19, i64 16, i1 false), !tbaa.struct !23
  br label %22

20:                                               ; preds = %13
  %21 = load ptr, ptr %1, align 8, !tbaa !4
  br label %22

22:                                               ; preds = %20, %17
  %storemerge.i = phi ptr [ %21, %20 ], [ %18, %17 ]
  store ptr %storemerge.i, ptr %0, align 8, !tbaa !4
  store i32 %15, ptr %5, align 8, !tbaa !14
  %23 = getelementptr inbounds nuw i8, ptr %1, i64 28
  %24 = load i8, ptr %23, align 4, !tbaa !19, !range !25, !noundef !26
  %25 = getelementptr inbounds nuw i8, ptr %0, i64 28
  store i8 %24, ptr %25, align 4, !tbaa !19
  %26 = getelementptr inbounds nuw i8, ptr %1, i64 20
  %27 = load i32, ptr %26, align 4, !tbaa !17
  %28 = getelementptr inbounds nuw i8, ptr %0, i64 20
  store i32 %27, ptr %28, align 4, !tbaa !17
  %29 = getelementptr inbounds nuw i8, ptr %1, i64 24
  %30 = load i32, ptr %29, align 8, !tbaa !18
  %31 = getelementptr inbounds nuw i8, ptr %0, i64 24
  store i32 %30, ptr %31, align 8, !tbaa !18
  %32 = getelementptr inbounds nuw i8, ptr %1, i64 12
  %33 = load i32, ptr %32, align 4, !tbaa !15
  %34 = getelementptr inbounds nuw i8, ptr %0, i64 12
  store i32 %33, ptr %34, align 4, !tbaa !15
  %35 = getelementptr inbounds nuw i8, ptr %1, i64 16
  %36 = load i32, ptr %35, align 8, !tbaa !16
  %37 = getelementptr inbounds nuw i8, ptr %0, i64 16
  store i32 %36, ptr %37, align 8, !tbaa !16
  br label %_ZN2mu14ParserCallback6AssignERKS0_.exit

_ZN2mu14ParserCallback6AssignERKS0_.exit:         ; preds = %2, %22
  ret ptr %0
}